target datalayout = "e-m:e-p270:32:32-p271:32:32-p272:64:64-i64:64-i128:128-f80:128-n8:16:32:64-S128"
target triple = "x86_64-pc-linux-gnu"

%"struct.icu_77::FormattedStringBuilder::Field" = type { i8 }
%"struct.icu_77::number::impl::Modifier::Parameters" = type { ptr, i32, i32 }
%"class.icu_77::number::impl::Modifier" = type { ptr }
%"class.icu_77::number::impl::ConstantMultiFieldModifier" = type { %"class.icu_77::number::impl::Modifier", %"class.icu_77::FormattedStringBuilder", %"class.icu_77::FormattedStringBuilder", i8, i8, %"struct.icu_77::number::impl::Modifier::Parameters" }
%"class.icu_77::FormattedStringBuilder" = type { i8, %"union.icu_77::FormattedStringBuilder::ValueOrHeapArray", %"union.icu_77::FormattedStringBuilder::ValueOrHeapArray.0", i32, i32 }
%"union.icu_77::FormattedStringBuilder::ValueOrHeapArray" = type { %struct.anon, [64 x i8] }
%struct.anon = type { ptr, i32 }
%"union.icu_77::FormattedStringBuilder::ValueOrHeapArray.0" = type { %struct.anon.1, [24 x i8] }
%struct.anon.1 = type { ptr, i32 }

; Function Attrs: mustprogress uwtable
define noundef zeroext i1 @_ZNK6icu_776number4impl26ConstantMultiFieldModifier13containsFieldENS_22FormattedStringBuilder5FieldE(ptr noundef nonnull align 8 dereferenceable(304) %0, i8 %1) unnamed_addr #2 align 2 {
  %3 = alloca %"struct.icu_77::FormattedStringBuilder::Field", align 1
  %4 = alloca ptr, align 8
  %5 = alloca %"struct.icu_77::FormattedStringBuilder::Field", align 1
  %6 = alloca %"struct.icu_77::FormattedStringBuilder::Field", align 1
  %7 = getelementptr inbounds nuw %"struct.icu_77::FormattedStringBuilder::Field", ptr %3, i32 0, i32 0
  store i8 %1, ptr %7, align 1
  store ptr %0, ptr %4, align 8, !tbaa !76
  %8 = load ptr, ptr %4, align 8
  %9 = getelementptr inbounds nuw %"class.icu_77::number::impl::ConstantMultiFieldModifier", ptr %8, i32 0, i32 1
  call void @llvm.memcpy.p0.p0.i64(ptr align 1 %5, ptr align 1 %3, i64 1, i1 false), !tbaa.struct !40
  %10 = getelementptr inbounds nuw %"struct.icu_77::FormattedStringBuilder::Field", ptr %5, i32 0, i32 0
  %11 = load i8, ptr %10, align 1
  %12 = call noundef zeroext i1 @_ZNK6icu_7722FormattedStringBuilder13containsFieldENS0_5FieldE(ptr noundef nonnull align 8 dereferenceable(136) %9, i8 %11)
  br i1 %12, label %18, label %13

13:                                               ; preds = %2
  %14 = getelementptr inbounds nuw %"class.icu_77::number::impl::ConstantMultiFieldModifier", ptr %8, i32 0, i32 2
  call void @llvm.memcpy.p0.p0.i64(ptr align 1 %6, ptr align 1 %3, i64 1, i1 false), !tbaa.struct !40
  %15 = getelementptr inbounds nuw %"struct.icu_77::FormattedStringBuilder::Field", ptr %6, i32 0, i32 0
  %16 = load i8, ptr %15, align 1
  %17 = call noundef zeroext i1 @_ZNK6icu_7722FormattedStringBuilder13containsFieldENS0_5FieldE(ptr noundef nonnull align 8 dereferenceable(136) %14, i8 %16)
  br label %18

18:                                               ; preds = %13, %2
  %19 = phi i1 [ true, %2 ], [ %17, %13 ]
  ret i1 %19
}