; Function Attrs: mustprogress uwtable
define noundef zeroext i1 @_ZNK6icu_776number4impl26ConstantMultiFieldModifier13containsFieldENS_22FormattedStringBuilder5FieldE(ptr noundef nonnull align 8 dereferenceable(304) %0, i8 %1) unnamed_addr #4 align 2 {
  %3 = getelementptr inbounds nuw i8, ptr %0, i64 8
  %4 = tail call noundef zeroext i1 @_ZNK6icu_7722FormattedStringBuilder13containsFieldENS0_5FieldE(ptr noundef nonnull align 8 dereferenceable(136) %3, i8 %1)
  br i1 %4, label %8, label %5

5:                                                ; preds = %2
  %6 = getelementptr inbounds nuw i8, ptr %0, i64 144
  %7 = tail call noundef zeroext i1 @_ZNK6icu_7722FormattedStringBuilder13containsFieldENS0_5FieldE(ptr noundef nonnull align 8 dereferenceable(136) %6, i8 %1)
  br label %8

8:                                                ; preds = %5, %2
  %9 = phi i1 [ true, %2 ], [ %7, %5 ]
  ret i1 %9
}